target datalayout = "e-m:e-p270:32:32-p271:32:32-p272:64:64-i64:64-i128:128-f80:128-n8:16:32:64-S128"
target triple = "x86_64-unknown-linux-gnu"

%struct.MachineState = type { %struct.Object, ptr, ptr, ptr, i32, ptr, i8, i8, i8, i8, ptr, i8, i8, i8, ptr, ptr, ptr, ptr, ptr, i64, i64, i64, %struct.BootConfiguration, ptr, ptr, ptr, ptr, ptr, ptr, %struct.CpuTopology, ptr, ptr }
%struct.Object = type { ptr, ptr, ptr, i32, ptr }
%struct.BootConfiguration = type { ptr, ptr, i8, i8, ptr, i8, i64, i8, i64, i8, i8 }
%struct.CpuTopology = type { i32, i32, i32, i32, i32, i32, i32, i32, i32 }
%struct.NVDIMMState = type { i8, ptr, %struct.NvdimmFitBuffer, %struct.MemoryRegion, i32, ptr, %struct.AcpiGenericAddress }
%struct.NvdimmFitBuffer = type { ptr, i8 }
%struct.MemoryRegion = type { %struct.Object, i8, i8, i8, i8, i8, i8, i8, i8, i8, i8, ptr, ptr, ptr, ptr, ptr, ptr, i32, i128, i64, ptr, i64, i8, i8, i8, i8, i8, ptr, i64, i32, %union.anon, %union.anon.1, %union.anon.2, ptr, i32, ptr, ptr, i8 }
%union.anon = type { %struct.QTailQLink }
%struct.QTailQLink = type { ptr, ptr }
%union.anon.1 = type { %struct.QTailQLink }
%union.anon.2 = type { %struct.QTailQLink }
%struct.AcpiGenericAddress = type { i8, i8, i8, i8, i64 }

@.str.199 = private unnamed_addr constant [26 x i8] c"../qemu/hw/core/machine.c\00", align 1
@.str.225 = private unnamed_addr constant [8 x i8] c"machine\00", align 1
@.str.226 = private unnamed_addr constant [98 x i8] c"/home/dtcxzyw/WorkSpace/Projects/compilers/llvm-opt-benchmark/bench/qemu/qemu/include/hw/boards.h\00", align 1
@__func__.MACHINE = private unnamed_addr constant [8 x i8] c"MACHINE\00", align 1
@.str.245 = private unnamed_addr constant [4 x i8] c"cpu\00", align 1
@.str.256 = private unnamed_addr constant [9 x i8] c"mem-ctrl\00", align 1
@__func__.machine_set_nvdimm_persistence = private unnamed_addr constant [31 x i8] c"machine_set_nvdimm_persistence\00", align 1
@.str.257 = private unnamed_addr constant [51 x i8] c"-machine nvdimm-persistence=%s: unsupported option\00", align 1

; Function Attrs: nounwind sspstrong uwtable
define internal ptr @MACHINE(ptr noundef %obj) #0 {
entry:
  %obj.addr = alloca ptr, align 8
  store ptr %obj, ptr %obj.addr, align 8
  %0 = load ptr, ptr %obj.addr, align 8
  %call = call ptr @object_dynamic_cast_assert(ptr noundef %0, ptr noundef @.str.225, ptr noundef @.str.226, i32 noundef 23, ptr noundef @__func__.MACHINE)
  ret ptr %call
}

; Function Attrs: nounwind sspstrong uwtable
define internal void @machine_set_nvdimm_persistence(ptr noundef %obj, ptr noundef %value, ptr noundef %errp) #0 {
entry:
  %obj.addr = alloca ptr, align 8
  %value.addr = alloca ptr, align 8
  %errp.addr = alloca ptr, align 8
  %ms = alloca ptr, align 8
  %nvdimms_state = alloca ptr, align 8
  store ptr %obj, ptr %obj.addr, align 8
  store ptr %value, ptr %value.addr, align 8
  store ptr %errp, ptr %errp.addr, align 8
  %0 = load ptr, ptr %obj.addr, align 8
  %call = call ptr @MACHINE(ptr noundef %0)
  store ptr %call, ptr %ms, align 8
  %1 = load ptr, ptr %ms, align 8
  %nvdimms_state1 = getelementptr inbounds %struct.MachineState, ptr %1, i32 0, i32 30
  %2 = load ptr, ptr %nvdimms_state1, align 8
  store ptr %2, ptr %nvdimms_state, align 8
  %3 = load ptr, ptr %value.addr, align 8
  %call2 = call i32 @strcmp(ptr noundef %3, ptr noundef @.str.245) #14
  %cmp = icmp eq i32 %call2, 0
  br i1 %cmp, label %if.then, label %if.else

if.then:                                          ; preds = %entry
  %4 = load ptr, ptr %nvdimms_state, align 8
  %persistence = getelementptr inbounds %struct.NVDIMMState, ptr %4, i32 0, i32 4
  store i32 3, ptr %persistence, align 16
  br label %if.end8

if.else:                                          ; preds = %entry
  %5 = load ptr, ptr %value.addr, align 8
  %call3 = call i32 @strcmp(ptr noundef %5, ptr noundef @.str.256) #14
  %cmp4 = icmp eq i32 %call3, 0
  br i1 %cmp4, label %if.then5, label %if.else7

if.then5:                                         ; preds = %if.else
  %6 = load ptr, ptr %nvdimms_state, align 8
  %persistence6 = getelementptr inbounds %struct.NVDIMMState, ptr %6, i32 0, i32 4
  store i32 2, ptr %persistence6, align 16
  br label %if.end

if.else7:                                         ; preds = %if.else
  %7 = load ptr, ptr %errp.addr, align 8
  %8 = load ptr, ptr %value.addr, align 8
  call void (ptr, ptr, i32, ptr, ptr, ...) @error_setg_internal(ptr noundef %7, ptr noundef @.str.199, i32 noundef 647, ptr noundef @__func__.machine_set_nvdimm_persistence, ptr noundef @.str.257, ptr noundef %8)
  br label %return

if.end:                                           ; preds = %if.then5
  br label %if.end8

if.end8:                                          ; preds = %if.end, %if.then
  %9 = load ptr, ptr %nvdimms_state, align 8
  %persistence_string = getelementptr inbounds %struct.NVDIMMState, ptr %9, i32 0, i32 5
  %10 = load ptr, ptr %persistence_string, align 8
  call void @g_free(ptr noundef %10)
  %11 = load ptr, ptr %value.addr, align 8
  %call9 = call noalias ptr @g_strdup(ptr noundef %11)
  %12 = load ptr, ptr %nvdimms_state, align 8
  %persistence_string10 = getelementptr inbounds %struct.NVDIMMState, ptr %12, i32 0, i32 5
  store ptr %call9, ptr %persistence_string10, align 8
  br label %return

return:                                           ; preds = %if.end8, %if.else7
  ret void
}