; Function Attrs: nounwind sspstrong uwtable
define internal void @machine_set_nvdimm_persistence(ptr noundef %obj, ptr noundef %value, ptr noundef %errp) #0 {
entry:
  %call.i = tail call ptr @object_dynamic_cast_assert(ptr noundef %obj, ptr noundef nonnull @.str.225, ptr noundef nonnull @.str.226, i32 noundef 23, ptr noundef nonnull @__func__.MACHINE) #16
  %nvdimms_state1 = getelementptr inbounds nuw i8, ptr %call.i, i64 328
  %0 = load ptr, ptr %nvdimms_state1, align 8
  %call2 = tail call i32 @strcmp(ptr noundef nonnull dereferenceable(1) %value, ptr noundef nonnull dereferenceable(4) @.str.245) #21
  %cmp = icmp eq i32 %call2, 0
  br i1 %cmp, label %if.end8, label %if.else

if.else:                                          ; preds = %entry
  %call3 = tail call i32 @strcmp(ptr noundef nonnull dereferenceable(1) %value, ptr noundef nonnull dereferenceable(9) @.str.256) #21
  %cmp4 = icmp eq i32 %call3, 0
  br i1 %cmp4, label %if.end8, label %if.else7

if.else7:                                         ; preds = %if.else
  tail call void (ptr, ptr, i32, ptr, ptr, ...) @error_setg_internal(ptr noundef %errp, ptr noundef nonnull @.str.199, i32 noundef 647, ptr noundef nonnull @__func__.machine_set_nvdimm_persistence, ptr noundef nonnull @.str.257, ptr noundef nonnull %value) #16
  br label %return

if.end8:                                          ; preds = %if.else, %entry
  %.sink = phi i32 [ 3, %entry ], [ 2, %if.else ]
  %persistence6 = getelementptr inbounds nuw i8, ptr %0, i64 304
  store i32 %.sink, ptr %persistence6, align 16
  %persistence_string = getelementptr inbounds nuw i8, ptr %0, i64 312
  %1 = load ptr, ptr %persistence_string, align 8
  tail call void @g_free(ptr noundef %1) #16
  %call9 = tail call noalias ptr @g_strdup(ptr noundef nonnull %value) #16
  store ptr %call9, ptr %persistence_string, align 8
  br label %return

return:                                           ; preds = %if.end8, %if.else7
  ret void
}